target datalayout = "e-m:e-p270:32:32-p271:32:32-p272:64:64-i64:64-i128:128-f80:128-n8:16:32:64-S128"
target triple = "x86_64-unknown-linux-gnu"

@.str.9 = private unnamed_addr constant [41 x i8] c"../qemu/hw/core/qdev-properties-system.c\00", align 1
@__func__.set_pci_devfn = private unnamed_addr constant [14 x i8] c"set_pci_devfn\00", align 1
@.str.66 = private unnamed_addr constant [26 x i8] c"Parameter '%s' expects %s\00", align 1
@.str.67 = private unnamed_addr constant [5 x i8] c"null\00", align 1
@.str.68 = private unnamed_addr constant [27 x i8] c"a value between -1 and 255\00", align 1
@.str.69 = private unnamed_addr constant [8 x i8] c"%x.%x%n\00", align 1
@.str.70 = private unnamed_addr constant [5 x i8] c"%x%n\00", align 1

; Function Attrs: nounwind sspstrong uwtable
define internal void @set_pci_devfn(ptr noundef %obj, ptr noundef %v, ptr noundef %name, ptr noundef %opaque, ptr noundef %errp) #0 {
entry:
  %obj.addr = alloca ptr, align 8
  %v.addr = alloca ptr, align 8
  %name.addr = alloca ptr, align 8
  %opaque.addr = alloca ptr, align 8
  %errp.addr = alloca ptr, align 8
  %prop = alloca ptr, align 8
  %value = alloca i32, align 4
  %ptr = alloca ptr, align 8
  %slot = alloca i32, align 4
  %fn = alloca i32, align 4
  %n = alloca i32, align 4
  %str = alloca ptr, align 8
  store ptr %obj, ptr %obj.addr, align 8
  store ptr %v, ptr %v.addr, align 8
  store ptr %name, ptr %name.addr, align 8
  store ptr %opaque, ptr %opaque.addr, align 8
  store ptr %errp, ptr %errp.addr, align 8
  %0 = load ptr, ptr %opaque.addr, align 8
  store ptr %0, ptr %prop, align 8
  %1 = load ptr, ptr %obj.addr, align 8
  %2 = load ptr, ptr %prop, align 8
  %call = call ptr @object_field_prop_ptr(ptr noundef %1, ptr noundef %2)
  store ptr %call, ptr %ptr, align 8
  %3 = load ptr, ptr %v.addr, align 8
  %4 = load ptr, ptr %name.addr, align 8
  %call1 = call zeroext i1 @visit_type_str(ptr noundef %3, ptr noundef %4, ptr noundef %str, ptr noundef null)
  br i1 %call1, label %if.end7, label %if.then

if.then:                                          ; preds = %entry
  %5 = load ptr, ptr %v.addr, align 8
  %6 = load ptr, ptr %name.addr, align 8
  %7 = load ptr, ptr %errp.addr, align 8
  %call2 = call zeroext i1 @visit_type_int32(ptr noundef %5, ptr noundef %6, ptr noundef %value, ptr noundef %7)
  br i1 %call2, label %if.end, label %if.then3

if.then3:                                         ; preds = %if.then
  br label %return

if.end:                                           ; preds = %if.then
  %8 = load i32, ptr %value, align 4
  %cmp = icmp slt i32 %8, -1
  br i1 %cmp, label %if.then5, label %lor.lhs.false

lor.lhs.false:                                    ; preds = %if.end
  %9 = load i32, ptr %value, align 4
  %cmp4 = icmp sgt i32 %9, 255
  br i1 %cmp4, label %if.then5, label %if.end6

if.then5:                                         ; preds = %lor.lhs.false, %if.end
  %10 = load ptr, ptr %errp.addr, align 8
  %11 = load ptr, ptr %name.addr, align 8
  %tobool = icmp ne ptr %11, null
  br i1 %tobool, label %cond.true, label %cond.false

cond.true:                                        ; preds = %if.then5
  %12 = load ptr, ptr %name.addr, align 8
  br label %cond.end

cond.false:                                       ; preds = %if.then5
  br label %cond.end

cond.end:                                         ; preds = %cond.false, %cond.true
  %cond = phi ptr [ %12, %cond.true ], [ @.str.67, %cond.false ]
  call void (ptr, ptr, i32, ptr, ptr, ...) @error_setg_internal(ptr noundef %10, ptr noundef @.str.9, i32 noundef 790, ptr noundef @__func__.set_pci_devfn, ptr noundef @.str.66, ptr noundef %cond, ptr noundef @.str.68)
  br label %return

if.end6:                                          ; preds = %lor.lhs.false
  %13 = load i32, ptr %value, align 4
  %14 = load ptr, ptr %ptr, align 8
  store i32 %13, ptr %14, align 4
  br label %return

if.end7:                                          ; preds = %entry
  %15 = load ptr, ptr %str, align 8
  %call8 = call i32 (ptr, ptr, ...) @__isoc99_sscanf(ptr noundef %15, ptr noundef @.str.69, ptr noundef %slot, ptr noundef %fn, ptr noundef %n) #7
  %cmp9 = icmp ne i32 %call8, 2
  br i1 %cmp9, label %if.then10, label %if.end15

if.then10:                                        ; preds = %if.end7
  store i32 0, ptr %fn, align 4
  %16 = load ptr, ptr %str, align 8
  %call11 = call i32 (ptr, ptr, ...) @__isoc99_sscanf(ptr noundef %16, ptr noundef @.str.70, ptr noundef %slot, ptr noundef %n) #7
  %cmp12 = icmp ne i32 %call11, 1
  br i1 %cmp12, label %if.then13, label %if.end14

if.then13:                                        ; preds = %if.then10
  br label %invalid

if.end14:                                         ; preds = %if.then10
  br label %if.end15

if.end15:                                         ; preds = %if.end14, %if.end7
  %17 = load ptr, ptr %str, align 8
  %18 = load i32, ptr %n, align 4
  %idxprom = zext i32 %18 to i64
  %arrayidx = getelementptr i8, ptr %17, i64 %idxprom
  %19 = load i8, ptr %arrayidx, align 1
  %conv = sext i8 %19 to i32
  %cmp16 = icmp ne i32 %conv, 0
  br i1 %cmp16, label %if.then24, label %lor.lhs.false18

lor.lhs.false18:                                  ; preds = %if.end15
  %20 = load i32, ptr %fn, align 4
  %cmp19 = icmp ugt i32 %20, 7
  br i1 %cmp19, label %if.then24, label %lor.lhs.false21

lor.lhs.false21:                                  ; preds = %lor.lhs.false18
  %21 = load i32, ptr %slot, align 4
  %cmp22 = icmp ugt i32 %21, 31
  br i1 %cmp22, label %if.then24, label %if.end25

if.then24:                                        ; preds = %lor.lhs.false21, %lor.lhs.false18, %if.end15
  br label %invalid

if.end25:                                         ; preds = %lor.lhs.false21
  %22 = load i32, ptr %slot, align 4
  %shl = shl i32 %22, 3
  %23 = load i32, ptr %fn, align 4
  %or = or i32 %shl, %23
  %24 = load ptr, ptr %ptr, align 8
  store i32 %or, ptr %24, align 4
  %25 = load ptr, ptr %str, align 8
  call void @g_free(ptr noundef %25)
  br label %return

invalid:                                          ; preds = %if.then24, %if.then13
  %26 = load ptr, ptr %errp.addr, align 8
  %27 = load ptr, ptr %obj.addr, align 8
  %28 = load ptr, ptr %name.addr, align 8
  %29 = load ptr, ptr %str, align 8
  call void @error_set_from_qdev_prop_error(ptr noundef %26, i32 noundef 22, ptr noundef %27, ptr noundef %28, ptr noundef %29)
  %30 = load ptr, ptr %str, align 8
  call void @g_free(ptr noundef %30)
  br label %return

return:                                           ; preds = %invalid, %if.end25, %if.end6, %cond.end, %if.then3
  ret void
}