; Function Attrs: nounwind sspstrong uwtable
define internal void @set_pci_devfn(ptr noundef %obj, ptr noundef %v, ptr noundef %name, ptr noundef %opaque, ptr noundef %errp) #0 {
entry:
  %value = alloca i32, align 4
  %slot = alloca i32, align 4
  %fn = alloca i32, align 4
  %n = alloca i32, align 4
  %str = alloca ptr, align 8
  %call = tail call ptr @object_field_prop_ptr(ptr noundef %obj, ptr noundef %opaque) #10
  %call1 = call zeroext i1 @visit_type_str(ptr noundef %v, ptr noundef %name, ptr noundef nonnull %str, ptr noundef null) #10
  br i1 %call1, label %if.end7, label %if.then

if.then:                                          ; preds = %entry
  %call2 = call zeroext i1 @visit_type_int32(ptr noundef %v, ptr noundef %name, ptr noundef nonnull %value, ptr noundef %errp) #10
  br i1 %call2, label %if.end, label %return

if.end:                                           ; preds = %if.then
  %0 = load i32, ptr %value, align 4
  %1 = add i32 %0, -256
  %or.cond = icmp ult i32 %1, -257
  br i1 %or.cond, label %if.then5, label %if.end6

if.then5:                                         ; preds = %if.end
  %tobool.not = icmp eq ptr %name, null
  %cond = select i1 %tobool.not, ptr @.str.67, ptr %name
  call void (ptr, ptr, i32, ptr, ptr, ...) @error_setg_internal(ptr noundef %errp, ptr noundef nonnull @.str.9, i32 noundef 790, ptr noundef nonnull @__func__.set_pci_devfn, ptr noundef nonnull @.str.66, ptr noundef nonnull %cond, ptr noundef nonnull @.str.68) #10
  br label %return

if.end6:                                          ; preds = %if.end
  store i32 %0, ptr %call, align 4
  br label %return

if.end7:                                          ; preds = %entry
  %2 = load ptr, ptr %str, align 8
  %call8 = call i32 (ptr, ptr, ...) @__isoc99_sscanf(ptr noundef %2, ptr noundef nonnull @.str.69, ptr noundef nonnull %slot, ptr noundef nonnull %fn, ptr noundef nonnull %n) #10
  %cmp9.not = icmp eq i32 %call8, 2
  br i1 %cmp9.not, label %if.end15, label %if.then10

if.then10:                                        ; preds = %if.end7
  store i32 0, ptr %fn, align 4
  %3 = load ptr, ptr %str, align 8
  %call11 = call i32 (ptr, ptr, ...) @__isoc99_sscanf(ptr noundef %3, ptr noundef nonnull @.str.70, ptr noundef nonnull %slot, ptr noundef nonnull %n) #10
  %cmp12.not = icmp eq i32 %call11, 1
  br i1 %cmp12.not, label %if.end15, label %if.then10.invalid_crit_edge

if.then10.invalid_crit_edge:                      ; preds = %if.then10
  %.pre = load ptr, ptr %str, align 8
  br label %invalid

if.end15:                                         ; preds = %if.then10, %if.end7
  %4 = load ptr, ptr %str, align 8
  %5 = load i32, ptr %n, align 4
  %idxprom = zext i32 %5 to i64
  %arrayidx = getelementptr i8, ptr %4, i64 %idxprom
  %6 = load i8, ptr %arrayidx, align 1
  %cmp16 = icmp ne i8 %6, 0
  %7 = load i32, ptr %fn, align 4
  %cmp19 = icmp ugt i32 %7, 7
  %or.cond1 = select i1 %cmp16, i1 true, i1 %cmp19
  %8 = load i32, ptr %slot, align 4
  %cmp22 = icmp ugt i32 %8, 31
  %or.cond2 = select i1 %or.cond1, i1 true, i1 %cmp22
  br i1 %or.cond2, label %invalid, label %if.end25

if.end25:                                         ; preds = %if.end15
  %shl = shl nuw nsw i32 %8, 3
  %or = or disjoint i32 %shl, %7
  store i32 %or, ptr %call, align 4
  call void @g_free(ptr noundef nonnull %4) #10
  br label %return

invalid:                                          ; preds = %if.then10.invalid_crit_edge, %if.end15
  %9 = phi ptr [ %.pre, %if.then10.invalid_crit_edge ], [ %4, %if.end15 ]
  call void @error_set_from_qdev_prop_error(ptr noundef %errp, i32 noundef 22, ptr noundef %obj, ptr noundef %name, ptr noundef %9) #10
  %10 = load ptr, ptr %str, align 8
  call void @g_free(ptr noundef %10) #10
  br label %return

return:                                           ; preds = %if.then, %invalid, %if.end25, %if.end6, %if.then5
  ret void
}